; Function Attrs: mustprogress nounwind uwtable
define internal void @_ZN12_GLOBAL__N_125rel_goal_case_split_queueD2Ev(ptr nocapture noundef nonnull align 8 dereferenceable(128) %this) unnamed_addr #5 align 2 personality ptr @__gxx_personality_v0 {
entry:
  store ptr getelementptr inbounds ({ [20 x ptr] }, ptr @_ZTVN12_GLOBAL__N_125rel_goal_case_split_queueE, i64 0, i32 0, i64 2), ptr %this, align 8
  %m_value2indices.i = getelementptr inbounds i8, ptr %this, i64 88
  %0 = load ptr, ptr %m_value2indices.i, align 8
  %tobool.not.i.i.i.i = icmp eq ptr %0, null
  br i1 %tobool.not.i.i.i.i, label %_ZN7svectorIijED2Ev.exit.i, label %if.then.i.i.i.i

if.then.i.i.i.i:                                  ; preds = %entry
  %add.ptr.i.i.i.i.i = getelementptr inbounds i8, ptr %0, i64 -8
  invoke void @_ZN6memory10deallocateEPv(ptr noundef nonnull %add.ptr.i.i.i.i.i)
          to label %_ZN7svectorIijED2Ev.exit.i unwind label %terminate.lpad.i.i.i

terminate.lpad.i.i.i:                             ; preds = %if.then.i.i.i.i
  %1 = landingpad { ptr, i32 }
          catch ptr null
  %2 = extractvalue { ptr, i32 } %1, 0
  tail call void @__clang_call_terminate(ptr %2) #23
  unreachable

_ZN7svectorIijED2Ev.exit.i:                       ; preds = %if.then.i.i.i.i, %entry
  %m_values.i = getelementptr inbounds i8, ptr %this, i64 80
  %3 = load ptr, ptr %m_values.i, align 8
  %tobool.not.i.i.i1.i = icmp eq ptr %3, null
  br i1 %tobool.not.i.i.i1.i, label %_ZN4heapIN12_GLOBAL__N_125rel_goal_case_split_queue13generation_ltEED2Ev.exit, label %if.then.i.i.i2.i

if.then.i.i.i2.i:                                 ; preds = %_ZN7svectorIijED2Ev.exit.i
  %add.ptr.i.i.i.i3.i = getelementptr inbounds i8, ptr %3, i64 -8
  invoke void @_ZN6memory10deallocateEPv(ptr noundef nonnull %add.ptr.i.i.i.i3.i)
          to label %_ZN4heapIN12_GLOBAL__N_125rel_goal_case_split_queue13generation_ltEED2Ev.exit unwind label %terminate.lpad.i.i4.i

terminate.lpad.i.i4.i:                            ; preds = %if.then.i.i.i2.i
  %4 = landingpad { ptr, i32 }
          catch ptr null
  %5 = extractvalue { ptr, i32 } %4, 0
  tail call void @__clang_call_terminate(ptr %5) #23
  unreachable

_ZN4heapIN12_GLOBAL__N_125rel_goal_case_split_queue13generation_ltEED2Ev.exit: ; preds = %_ZN7svectorIijED2Ev.exit.i, %if.then.i.i.i2.i
  %m_scopes = getelementptr inbounds i8, ptr %this, i64 56
  %m_scopes.val = load ptr, ptr %m_scopes, align 8
  %tobool.not.i.i.i = icmp eq ptr %m_scopes.val, null
  br i1 %tobool.not.i.i.i, label %_ZN7svectorIN12_GLOBAL__N_125rel_goal_case_split_queue5scopeEjED2Ev.exit, label %if.then.i.i.i

if.then.i.i.i:                                    ; preds = %_ZN4heapIN12_GLOBAL__N_125rel_goal_case_split_queue13generation_ltEED2Ev.exit
  %add.ptr.i.i.i.i = getelementptr inbounds i8, ptr %m_scopes.val, i64 -8
  invoke void @_ZN6memory10deallocateEPv(ptr noundef nonnull %add.ptr.i.i.i.i)
          to label %_ZN7svectorIN12_GLOBAL__N_125rel_goal_case_split_queue5scopeEjED2Ev.exit unwind label %terminate.lpad.i.i

terminate.lpad.i.i:                               ; preds = %if.then.i.i.i
  %6 = landingpad { ptr, i32 }
          catch ptr null
  %7 = extractvalue { ptr, i32 } %6, 0
  tail call void @__clang_call_terminate(ptr %7) #23
  unreachable

_ZN7svectorIN12_GLOBAL__N_125rel_goal_case_split_queue5scopeEjED2Ev.exit: ; preds = %_ZN4heapIN12_GLOBAL__N_125rel_goal_case_split_queue13generation_ltEED2Ev.exit, %if.then.i.i.i
  %m_queue2 = getelementptr inbounds i8, ptr %this, i64 48
  %m_queue2.val = load ptr, ptr %m_queue2, align 8
  %tobool.not.i.i.i1 = icmp eq ptr %m_queue2.val, null
  br i1 %tobool.not.i.i.i1, label %_ZN7svectorIN12_GLOBAL__N_125rel_goal_case_split_queue11queue_entryEjED2Ev.exit, label %if.then.i.i.i2

if.then.i.i.i2:                                   ; preds = %_ZN7svectorIN12_GLOBAL__N_125rel_goal_case_split_queue5scopeEjED2Ev.exit
  %add.ptr.i.i.i.i3 = getelementptr inbounds i8, ptr %m_queue2.val, i64 -8
  invoke void @_ZN6memory10deallocateEPv(ptr noundef nonnull %add.ptr.i.i.i.i3)
          to label %_ZN7svectorIN12_GLOBAL__N_125rel_goal_case_split_queue11queue_entryEjED2Ev.exit unwind label %terminate.lpad.i.i4

terminate.lpad.i.i4:                              ; preds = %if.then.i.i.i2
  %8 = landingpad { ptr, i32 }
          catch ptr null
  %9 = extractvalue { ptr, i32 } %8, 0
  tail call void @__clang_call_terminate(ptr %9) #23
  unreachable

_ZN7svectorIN12_GLOBAL__N_125rel_goal_case_split_queue11queue_entryEjED2Ev.exit: ; preds = %_ZN7svectorIN12_GLOBAL__N_125rel_goal_case_split_queue5scopeEjED2Ev.exit, %if.then.i.i.i2
  %m_queue = getelementptr inbounds i8, ptr %this, i64 32
  %10 = load ptr, ptr %m_queue, align 8
  %tobool.not.i.i.i5 = icmp eq ptr %10, null
  br i1 %tobool.not.i.i.i5, label %_ZN10ptr_vectorI4exprED2Ev.exit, label %if.then.i.i.i6

if.then.i.i.i6:                                   ; preds = %_ZN7svectorIN12_GLOBAL__N_125rel_goal_case_split_queue11queue_entryEjED2Ev.exit
  %add.ptr.i.i.i.i7 = getelementptr inbounds i8, ptr %10, i64 -8
  invoke void @_ZN6memory10deallocateEPv(ptr noundef nonnull %add.ptr.i.i.i.i7)
          to label %_ZN10ptr_vectorI4exprED2Ev.exit unwind label %terminate.lpad.i.i8

terminate.lpad.i.i8:                              ; preds = %if.then.i.i.i6
  %11 = landingpad { ptr, i32 }
          catch ptr null
  %12 = extractvalue { ptr, i32 } %11, 0
  tail call void @__clang_call_terminate(ptr %12) #23
  unreachable

_ZN10ptr_vectorI4exprED2Ev.exit:                  ; preds = %_ZN7svectorIN12_GLOBAL__N_125rel_goal_case_split_queue11queue_entryEjED2Ev.exit, %if.then.i.i.i6
  ret void
}